target datalayout = "e-m:e-p270:32:32-p271:32:32-p272:64:64-i64:64-i128:128-f80:128-n8:16:32:64-S128"
target triple = "x86_64-unknown-linux-gnu"

@_ZZ20ucol_getUnsafeSet_75E10cccpattern = internal constant [25 x i16] [i16 91, i16 91, i16 58, i16 94, i16 116, i16 99, i16 99, i16 99, i16 61, i16 48, i16 58, i16 93, i16 91, i16 58, i16 94, i16 108, i16 99, i16 99, i16 99, i16 61, i16 48, i16 58, i16 93, i16 93, i16 0], align 16

; Function Attrs: mustprogress uwtable
define i32 @ucol_getUnsafeSet_75(ptr noundef %coll, ptr noundef %unsafe, ptr noundef %status) #0 {
entry:
  %coll.addr = alloca ptr, align 8
  %unsafe.addr = alloca ptr, align 8
  %status.addr = alloca ptr, align 8
  %buffer = alloca [512 x i16], align 16
  %len = alloca i32, align 4
  %contractions = alloca ptr, align 8
  %i = alloca i32, align 4
  %j = alloca i32, align 4
  %contsSize = alloca i32, align 4
  %c = alloca i32, align 4
  %__c2 = alloca i16, align 2
  store ptr %coll, ptr %coll.addr, align 8
  store ptr %unsafe, ptr %unsafe.addr, align 8
  store ptr %status, ptr %status.addr, align 8
  store i32 0, ptr %len, align 4
  %0 = load ptr, ptr %unsafe.addr, align 8
  call void @uset_clear_75(ptr noundef %0)
  %1 = load ptr, ptr %unsafe.addr, align 8
  %2 = load ptr, ptr %status.addr, align 8
  %call = call i32 @uset_applyPattern_75(ptr noundef %1, ptr noundef @_ZZ20ucol_getUnsafeSet_75E10cccpattern, i32 noundef 24, i32 noundef 1, ptr noundef %2)
  %3 = load ptr, ptr %unsafe.addr, align 8
  call void @uset_addRange_75(ptr noundef %3, i32 noundef 55296, i32 noundef 57343)
  %call1 = call ptr @uset_open_75(i32 noundef 0, i32 noundef 0)
  store ptr %call1, ptr %contractions, align 8
  store i32 0, ptr %i, align 4
  store i32 0, ptr %j, align 4
  %4 = load ptr, ptr %coll.addr, align 8
  %5 = load ptr, ptr %contractions, align 8
  %6 = load ptr, ptr %status.addr, align 8
  call void @ucol_getContractionsAndExpansions_75(ptr noundef %4, ptr noundef %5, ptr noundef null, i8 noundef signext 0, ptr noundef %6)
  %7 = load ptr, ptr %contractions, align 8
  %call2 = call i32 @uset_size_75(ptr noundef %7)
  store i32 %call2, ptr %contsSize, align 4
  store i32 0, ptr %c, align 4
  store i32 0, ptr %i, align 4
  br label %for.cond

for.cond:                                         ; preds = %for.inc, %entry
  %8 = load i32, ptr %i, align 4
  %9 = load i32, ptr %contsSize, align 4
  %cmp = icmp slt i32 %8, %9
  br i1 %cmp, label %for.body, label %for.end

for.body:                                         ; preds = %for.cond
  %10 = load ptr, ptr %contractions, align 8
  %11 = load i32, ptr %i, align 4
  %arraydecay = getelementptr inbounds [512 x i16], ptr %buffer, i64 0, i64 0
  %12 = load ptr, ptr %status.addr, align 8
  %call3 = call i32 @uset_getItem_75(ptr noundef %10, i32 noundef %11, ptr noundef null, ptr noundef null, ptr noundef %arraydecay, i32 noundef 512, ptr noundef %12)
  store i32 %call3, ptr %len, align 4
  %13 = load i32, ptr %len, align 4
  %cmp4 = icmp sgt i32 %13, 0
  br i1 %cmp4, label %if.then, label %if.end21

if.then:                                          ; preds = %for.body
  store i32 0, ptr %j, align 4
  br label %while.cond

while.cond:                                       ; preds = %if.end20, %if.then
  %14 = load i32, ptr %j, align 4
  %15 = load i32, ptr %len, align 4
  %cmp5 = icmp slt i32 %14, %15
  br i1 %cmp5, label %while.body, label %while.end

while.body:                                       ; preds = %while.cond
  br label %do.body

do.body:                                          ; preds = %while.body
  %16 = load i32, ptr %j, align 4
  %inc = add nsw i32 %16, 1
  store i32 %inc, ptr %j, align 4
  %idxprom = sext i32 %16 to i64
  %arrayidx = getelementptr inbounds [512 x i16], ptr %buffer, i64 0, i64 %idxprom
  %17 = load i16, ptr %arrayidx, align 2
  %conv = zext i16 %17 to i32
  store i32 %conv, ptr %c, align 4
  %18 = load i32, ptr %c, align 4
  %and = and i32 %18, -1024
  %cmp6 = icmp eq i32 %and, 55296
  br i1 %cmp6, label %if.then7, label %if.end17

if.then7:                                         ; preds = %do.body
  %19 = load i32, ptr %j, align 4
  %20 = load i32, ptr %len, align 4
  %cmp8 = icmp ne i32 %19, %20
  br i1 %cmp8, label %land.lhs.true, label %if.end

land.lhs.true:                                    ; preds = %if.then7
  %21 = load i32, ptr %j, align 4
  %idxprom9 = sext i32 %21 to i64
  %arrayidx10 = getelementptr inbounds [512 x i16], ptr %buffer, i64 0, i64 %idxprom9
  %22 = load i16, ptr %arrayidx10, align 2
  store i16 %22, ptr %__c2, align 2
  %conv11 = zext i16 %22 to i32
  %and12 = and i32 %conv11, -1024
  %cmp13 = icmp eq i32 %and12, 56320
  br i1 %cmp13, label %if.then14, label %if.end

if.then14:                                        ; preds = %land.lhs.true
  %23 = load i32, ptr %j, align 4
  %inc15 = add nsw i32 %23, 1
  store i32 %inc15, ptr %j, align 4
  %24 = load i32, ptr %c, align 4
  %shl = shl i32 %24, 10
  %25 = load i16, ptr %__c2, align 2
  %conv16 = zext i16 %25 to i32
  %add = add nsw i32 %shl, %conv16
  %sub = sub nsw i32 %add, 56613888
  store i32 %sub, ptr %c, align 4
  br label %if.end

if.end:                                           ; preds = %if.then14, %land.lhs.true, %if.then7
  br label %if.end17

if.end17:                                         ; preds = %if.end, %do.body
  br label %do.end

do.end:                                           ; preds = %if.end17
  %26 = load i32, ptr %j, align 4
  %27 = load i32, ptr %len, align 4
  %cmp18 = icmp slt i32 %26, %27
  br i1 %cmp18, label %if.then19, label %if.end20

if.then19:                                        ; preds = %do.end
  %28 = load ptr, ptr %unsafe.addr, align 8
  %29 = load i32, ptr %c, align 4
  call void @uset_add_75(ptr noundef %28, i32 noundef %29)
  br label %if.end20

if.end20:                                         ; preds = %if.then19, %do.end
  br label %while.cond, !llvm.loop !32

while.end:                                        ; preds = %while.cond
  br label %if.end21

if.end21:                                         ; preds = %while.end, %for.body
  br label %for.inc

for.inc:                                          ; preds = %if.end21
  %30 = load i32, ptr %i, align 4
  %inc22 = add nsw i32 %30, 1
  store i32 %inc22, ptr %i, align 4
  br label %for.cond, !llvm.loop !33

for.end:                                          ; preds = %for.cond
  %31 = load ptr, ptr %contractions, align 8
  call void @uset_close_75(ptr noundef %31)
  %32 = load ptr, ptr %unsafe.addr, align 8
  %call23 = call i32 @uset_size_75(ptr noundef %32)
  ret i32 %call23
}