; Function Attrs: mustprogress uwtable
define i32 @ucol_getUnsafeSet_75(ptr noundef %coll, ptr noundef %unsafe, ptr noundef %status) local_unnamed_addr #0 {
entry:
  %buffer = alloca [512 x i16], align 16
  tail call void @uset_clear_75(ptr noundef %unsafe)
  %call = tail call i32 @uset_applyPattern_75(ptr noundef %unsafe, ptr noundef nonnull @_ZZ20ucol_getUnsafeSet_75E10cccpattern, i32 noundef 24, i32 noundef 1, ptr noundef %status)
  tail call void @uset_addRange_75(ptr noundef %unsafe, i32 noundef 55296, i32 noundef 57343)
  %call1 = tail call ptr @uset_open_75(i32 noundef 0, i32 noundef 0)
  tail call void @ucol_getContractionsAndExpansions_75(ptr noundef %coll, ptr noundef %call1, ptr noundef null, i8 noundef signext 0, ptr noundef %status)
  %call2 = tail call i32 @uset_size_75(ptr noundef %call1)
  %cmp23 = icmp sgt i32 %call2, 0
  br i1 %cmp23, label %for.body, label %for.end

for.body:                                         ; preds = %entry, %for.inc
  %i.024 = phi i32 [ %inc22, %for.inc ], [ 0, %entry ]
  %call3 = call i32 @uset_getItem_75(ptr noundef %call1, i32 noundef %i.024, ptr noundef null, ptr noundef null, ptr noundef nonnull %buffer, i32 noundef 512, ptr noundef %status)
  %cmp4 = icmp sgt i32 %call3, 0
  br i1 %cmp4, label %do.body, label %for.inc

do.body:                                          ; preds = %for.body, %if.end20
  %j.022 = phi i32 [ %j.1, %if.end20 ], [ 0, %for.body ]
  %inc = add nsw i32 %j.022, 1
  %idxprom = sext i32 %j.022 to i64
  %arrayidx = getelementptr inbounds [512 x i16], ptr %buffer, i64 0, i64 %idxprom
  %0 = load i16, ptr %arrayidx, align 2
  %conv = zext i16 %0 to i32
  %and = and i32 %conv, 64512
  %cmp6 = icmp ne i32 %and, 55296
  %cmp8.not = icmp eq i32 %inc, %call3
  %or.cond = select i1 %cmp6, i1 true, i1 %cmp8.not
  br i1 %or.cond, label %do.end, label %land.lhs.true

land.lhs.true:                                    ; preds = %do.body
  %idxprom9 = sext i32 %inc to i64
  %arrayidx10 = getelementptr inbounds [512 x i16], ptr %buffer, i64 0, i64 %idxprom9
  %1 = load i16, ptr %arrayidx10, align 2
  %conv11 = zext i16 %1 to i32
  %and12 = and i32 %conv11, 64512
  %cmp13 = icmp eq i32 %and12, 56320
  br i1 %cmp13, label %if.then14, label %do.end

if.then14:                                        ; preds = %land.lhs.true
  %inc15 = add nsw i32 %j.022, 2
  %shl = shl nuw nsw i32 %conv, 10
  %add = add nsw i32 %shl, -56613888
  %sub = add nuw nsw i32 %add, %conv11
  br label %do.end

do.end:                                           ; preds = %do.body, %if.then14, %land.lhs.true
  %j.1 = phi i32 [ %inc15, %if.then14 ], [ %inc, %land.lhs.true ], [ %inc, %do.body ]
  %c.0 = phi i32 [ %sub, %if.then14 ], [ %conv, %land.lhs.true ], [ %conv, %do.body ]
  %cmp18 = icmp slt i32 %j.1, %call3
  br i1 %cmp18, label %if.end20, label %for.inc

if.end20:                                         ; preds = %do.end
  call void @uset_add_75(ptr noundef %unsafe, i32 noundef %c.0)
  br label %do.body

for.inc:                                          ; preds = %do.end, %for.body
  %inc22 = add nuw nsw i32 %i.024, 1
  %exitcond.not = icmp eq i32 %inc22, %call2
  br i1 %exitcond.not, label %for.end, label %for.body, !llvm.loop !41

for.end:                                          ; preds = %for.inc, %entry
  call void @uset_close_75(ptr noundef %call1)
  %call23 = call i32 @uset_size_75(ptr noundef %unsafe)
  ret i32 %call23
}